#include <math.h>
#include <stdio.h>
#include <stdlib.h>
#include <string.h>

int main(){
  	int n,s[100][100],x;
	scanf("%d",&n);
    int a1=n-1,a2=0,b1=n-1,b2=0;
    for(int i=0;i<n;i++){
		for(int j=0;j<n;j++){
			scanf("%d",&s[i][j]);
            if(s[i][j]==0){
				if(i<a1)
					a1=i;
				if(i>a2)
					a2=i;
				if(j<b1)
					b1=j;
				if(j>b2)
					b2=j;
			}
        }
	}
	x=(b2-b1-1)*(a2-a1-1);
	printf("%d",x);
	return 0;
}